; Function Attrs: nofree norecurse nosync nounwind memory(readwrite, inaccessiblemem: none) uwtable
define internal void @aintegral_dblp(ptr noundef readonly captures(none) %0, ptr noundef readonly captures(none) %1, ptr noundef readonly captures(none) %2, i32 noundef %3, i32 noundef %4) #5 {
  %6 = icmp sgt i32 %4, 0
  %7 = icmp sgt i32 %3, 0
  %or.cond = and i1 %6, %7
  br i1 %or.cond, label %.lr.ph.us.preheader, label %._crit_edge25

.lr.ph.us.preheader:                              ; preds = %5
  %wide.trip.count31 = zext nneg i32 %4 to i64
  %wide.trip.count = zext nneg i32 %3 to i64
  br label %.lr.ph.us

.lr.ph.us:                                        ; preds = %.lr.ph.us.preheader, %._crit_edge.us
  %indvars.iv28 = phi i64 [ 0, %.lr.ph.us.preheader ], [ %indvars.iv.next29, %._crit_edge.us ]
  %8 = getelementptr inbounds nuw ptr, ptr %2, i64 %indvars.iv28
  %9 = load ptr, ptr %8, align 8, !tbaa !51
  %10 = getelementptr inbounds nuw ptr, ptr %0, i64 %indvars.iv28
  %11 = load ptr, ptr %10, align 8, !tbaa !51
  %12 = getelementptr inbounds nuw ptr, ptr %1, i64 %indvars.iv28
  %13 = load ptr, ptr %12, align 8, !tbaa !51
  %.pre = load double, ptr %13, align 8, !tbaa !57
  br label %14

14:                                               ; preds = %.lr.ph.us, %14
  %15 = phi double [ %.pre, %.lr.ph.us ], [ %18, %14 ]
  %indvars.iv = phi i64 [ 0, %.lr.ph.us ], [ %indvars.iv.next, %14 ]
  %16 = getelementptr inbounds nuw double, ptr %9, i64 %indvars.iv
  %17 = load double, ptr %16, align 8, !tbaa !57
  %18 = fadd nsz double %17, %15
  %19 = getelementptr inbounds nuw double, ptr %11, i64 %indvars.iv
  store double %18, ptr %19, align 8, !tbaa !57
  store double %18, ptr %13, align 8, !tbaa !57
  %indvars.iv.next = add nuw nsw i64 %indvars.iv, 1
  %exitcond.not = icmp eq i64 %indvars.iv.next, %wide.trip.count
  br i1 %exitcond.not, label %._crit_edge.us, label %14, !llvm.loop !70

._crit_edge.us:                                   ; preds = %14
  %indvars.iv.next29 = add nuw nsw i64 %indvars.iv28, 1
  %exitcond32.not = icmp eq i64 %indvars.iv.next29, %wide.trip.count31
  br i1 %exitcond32.not, label %._crit_edge25, label %.lr.ph.us, !llvm.loop !71

._crit_edge25:                                    ; preds = %._crit_edge.us, %5
  ret void
}